; Function Attrs: mustprogress nofree norecurse nosync nounwind willreturn memory(argmem: readwrite) uwtable
define internal void @_ZN8facebook5velox6window9prestosql12_GLOBAL__N_116CumeDistFunction14resetPartitionEPKNS0_4exec15WindowPartitionE(ptr nocapture noundef nonnull writeonly align 8 dereferenceable(108) %this, ptr nocapture noundef readonly %partition) unnamed_addr #11 align 2 {
entry:
  %runningTotal_ = getelementptr inbounds i8, ptr %this, i64 80
  %currentPeerGroupStart_ = getelementptr inbounds i8, ptr %this, i64 96
  tail call void @llvm.memset.p0.i64(ptr noundef nonnull align 8 dereferenceable(16) %runningTotal_, i8 0, i64 16, i1 false)
  store i64 -1, ptr %currentPeerGroupStart_, align 8
  %partition_.i = getelementptr inbounds i8, ptr %partition, i64 8
  %e_.i.i = getelementptr inbounds i8, ptr %partition, i64 16
  %0 = load ptr, ptr %e_.i.i, align 8
  %1 = load ptr, ptr %partition_.i, align 8
  %sub.ptr.lhs.cast.i.i = ptrtoint ptr %0 to i64
  %sub.ptr.rhs.cast.i.i = ptrtoint ptr %1 to i64
  %sub.ptr.sub.i.i = sub i64 %sub.ptr.lhs.cast.i.i, %sub.ptr.rhs.cast.i.i
  %sub.ptr.div.i.i = lshr exact i64 %sub.ptr.sub.i.i, 3
  %conv.i = trunc i64 %sub.ptr.div.i.i to i32
  %numPartitionRows_ = getelementptr inbounds i8, ptr %this, i64 104
  store i32 %conv.i, ptr %numPartitionRows_, align 8
  ret void
}